target datalayout = "e-m:e-p270:32:32-p271:32:32-p272:64:64-i64:64-i128:128-f80:128-n8:16:32:64-S128"
target triple = "x86_64-pc-linux-gnu"

%struct.strbuf = type { i64, i64, ptr }
%struct.add_opts = type { i32, i32, i32, i32, i32, i32, ptr }

@.str.8 = private unnamed_addr constant [1 x i8] zeroinitializer, align 1
@the_repository = external global ptr, align 8
@strbuf_slopbuf = external global [0 x i8], align 1
@git_gettext_enabled = external global i32, align 4
@__const.can_use_local_refs.path = private unnamed_addr constant %struct.strbuf { i64 0, i64 0, ptr @strbuf_slopbuf }, align 8
@__const.can_use_local_refs.contents = private unnamed_addr constant %struct.strbuf { i64 0, i64 0, ptr @strbuf_slopbuf }, align 8
@.str.55 = private unnamed_addr constant [6 x i8] c"/HEAD\00", align 1
@.str.56 = private unnamed_addr constant [2 x i8] c"\0A\00", align 1
@.str.57 = private unnamed_addr constant [87 x i8] c"HEAD points to an invalid (or orphaned) reference.\0AHEAD path: '%s'\0AHEAD contents: '%s'\00", align 1
@.str.58 = private unnamed_addr constant [11 x i8] c"./strbuf.h\00", align 1
@.str.59 = private unnamed_addr constant [30 x i8] c"strbuf_setlen() beyond buffer\00", align 1

; Function Attrs: inlinehint nounwind uwtable
define internal void @strbuf_setlen(ptr noundef %0, i64 noundef %1) #3 {
  %3 = alloca ptr, align 8
  %4 = alloca i64, align 8
  store ptr %0, ptr %3, align 8, !tbaa !92
  store i64 %1, ptr %4, align 8, !tbaa !60
  %5 = load i64, ptr %4, align 8, !tbaa !60
  %6 = load ptr, ptr %3, align 8, !tbaa !92
  %7 = getelementptr inbounds nuw %struct.strbuf, ptr %6, i32 0, i32 0
  %8 = load i64, ptr %7, align 8, !tbaa !96
  %9 = icmp ne i64 %8, 0
  br i1 %9, label %10, label %15

10:                                               ; preds = %2
  %11 = load ptr, ptr %3, align 8, !tbaa !92
  %12 = getelementptr inbounds nuw %struct.strbuf, ptr %11, i32 0, i32 0
  %13 = load i64, ptr %12, align 8, !tbaa !96
  %14 = sub i64 %13, 1
  br label %16

15:                                               ; preds = %2
  br label %16

16:                                               ; preds = %15, %10
  %17 = phi i64 [ %14, %10 ], [ 0, %15 ]
  %18 = icmp ugt i64 %5, %17
  br i1 %18, label %19, label %20

19:                                               ; preds = %16
  call void (ptr, i32, ptr, ...) @BUG_fl(ptr noundef @.str.58, i32 noundef 167, ptr noundef @.str.59) #12
  unreachable

20:                                               ; preds = %16
  %21 = load i64, ptr %4, align 8, !tbaa !60
  %22 = load ptr, ptr %3, align 8, !tbaa !92
  %23 = getelementptr inbounds nuw %struct.strbuf, ptr %22, i32 0, i32 1
  store i64 %21, ptr %23, align 8, !tbaa !83
  %24 = load ptr, ptr %3, align 8, !tbaa !92
  %25 = getelementptr inbounds nuw %struct.strbuf, ptr %24, i32 0, i32 2
  %26 = load ptr, ptr %25, align 8, !tbaa !55
  %27 = icmp ne ptr %26, @strbuf_slopbuf
  br i1 %27, label %28, label %34

28:                                               ; preds = %20
  %29 = load ptr, ptr %3, align 8, !tbaa !92
  %30 = getelementptr inbounds nuw %struct.strbuf, ptr %29, i32 0, i32 2
  %31 = load ptr, ptr %30, align 8, !tbaa !55
  %32 = load i64, ptr %4, align 8, !tbaa !60
  %33 = getelementptr inbounds nuw i8, ptr %31, i64 %32
  store i8 0, ptr %33, align 1, !tbaa !67
  br label %35

34:                                               ; preds = %20
  br label %35

35:                                               ; preds = %34, %28
  ret void
}

; Function Attrs: inlinehint nounwind uwtable
define internal zeroext i1 @strip_suffix_mem(ptr noundef %0, ptr noundef %1, ptr noundef %2) #3 {
  %4 = alloca i1, align 1
  %5 = alloca ptr, align 8
  %6 = alloca ptr, align 8
  %7 = alloca ptr, align 8
  %8 = alloca i64, align 8
  %9 = alloca i32, align 4
  store ptr %0, ptr %5, align 8, !tbaa !11
  store ptr %1, ptr %6, align 8, !tbaa !94
  store ptr %2, ptr %7, align 8, !tbaa !11
  call void @llvm.lifetime.start.p0(i64 8, ptr %8) #11
  %10 = load ptr, ptr %7, align 8, !tbaa !11
  %11 = call i64 @strlen(ptr noundef %10) #13
  store i64 %11, ptr %8, align 8, !tbaa !60
  %12 = load ptr, ptr %6, align 8, !tbaa !94
  %13 = load i64, ptr %12, align 8, !tbaa !60
  %14 = load i64, ptr %8, align 8, !tbaa !60
  %15 = icmp ult i64 %13, %14
  br i1 %15, label %27, label %16

16:                                               ; preds = %3
  %17 = load ptr, ptr %5, align 8, !tbaa !11
  %18 = load ptr, ptr %6, align 8, !tbaa !94
  %19 = load i64, ptr %18, align 8, !tbaa !60
  %20 = load i64, ptr %8, align 8, !tbaa !60
  %21 = sub i64 %19, %20
  %22 = getelementptr inbounds nuw i8, ptr %17, i64 %21
  %23 = load ptr, ptr %7, align 8, !tbaa !11
  %24 = load i64, ptr %8, align 8, !tbaa !60
  %25 = call i32 @memcmp(ptr noundef %22, ptr noundef %23, i64 noundef %24) #13
  %26 = icmp ne i32 %25, 0
  br i1 %26, label %27, label %28

27:                                               ; preds = %16, %3
  store i1 false, ptr %4, align 1
  store i32 1, ptr %9, align 4
  br label %33

28:                                               ; preds = %16
  %29 = load i64, ptr %8, align 8, !tbaa !60
  %30 = load ptr, ptr %6, align 8, !tbaa !94
  %31 = load i64, ptr %30, align 8, !tbaa !60
  %32 = sub i64 %31, %29
  store i64 %32, ptr %30, align 8, !tbaa !60
  store i1 true, ptr %4, align 1
  store i32 1, ptr %9, align 4
  br label %33

33:                                               ; preds = %28, %27
  call void @llvm.lifetime.end.p0(i64 8, ptr %8) #11
  %34 = load i1, ptr %4, align 1
  ret i1 %34
}

; Function Attrs: inlinehint nounwind uwtable
define internal ptr @_(ptr noundef %0) #3 {
  %2 = alloca ptr, align 8
  %3 = alloca ptr, align 8
  store ptr %0, ptr %3, align 8, !tbaa !11
  %4 = load ptr, ptr %3, align 8, !tbaa !11
  %5 = load i8, ptr %4, align 1, !tbaa !67
  %6 = icmp ne i8 %5, 0
  br i1 %6, label %8, label %7

7:                                                ; preds = %1
  store ptr @.str.8, ptr %2, align 8
  br label %16

8:                                                ; preds = %1
  %9 = load i32, ptr @git_gettext_enabled, align 4, !tbaa !4
  %10 = icmp ne i32 %9, 0
  br i1 %10, label %13, label %11

11:                                               ; preds = %8
  %12 = load ptr, ptr %3, align 8, !tbaa !11
  store ptr %12, ptr %2, align 8
  br label %16

13:                                               ; preds = %8
  %14 = load ptr, ptr %3, align 8, !tbaa !11
  %15 = call ptr @dcgettext(ptr noundef null, ptr noundef %14, i32 noundef 5) #11
  store ptr %15, ptr %2, align 8
  br label %16

16:                                               ; preds = %13, %11, %7
  %17 = load ptr, ptr %2, align 8
  ret ptr %17
}

; Function Attrs: inlinehint nounwind uwtable
define internal i32 @strbuf_strip_suffix(ptr noundef %0, ptr noundef %1) #3 {
  %3 = alloca i32, align 4
  %4 = alloca ptr, align 8
  %5 = alloca ptr, align 8
  store ptr %0, ptr %4, align 8, !tbaa !92
  store ptr %1, ptr %5, align 8, !tbaa !11
  %6 = load ptr, ptr %4, align 8, !tbaa !92
  %7 = getelementptr inbounds nuw %struct.strbuf, ptr %6, i32 0, i32 2
  %8 = load ptr, ptr %7, align 8, !tbaa !55
  %9 = load ptr, ptr %4, align 8, !tbaa !92
  %10 = getelementptr inbounds nuw %struct.strbuf, ptr %9, i32 0, i32 1
  %11 = load ptr, ptr %5, align 8, !tbaa !11
  %12 = call zeroext i1 @strip_suffix_mem(ptr noundef %8, ptr noundef %10, ptr noundef %11)
  br i1 %12, label %13, label %18

13:                                               ; preds = %2
  %14 = load ptr, ptr %4, align 8, !tbaa !92
  %15 = load ptr, ptr %4, align 8, !tbaa !92
  %16 = getelementptr inbounds nuw %struct.strbuf, ptr %15, i32 0, i32 1
  %17 = load i64, ptr %16, align 8, !tbaa !83
  call void @strbuf_setlen(ptr noundef %14, i64 noundef %17)
  store i32 1, ptr %3, align 4
  br label %19

18:                                               ; preds = %2
  store i32 0, ptr %3, align 4
  br label %19

19:                                               ; preds = %18, %13
  %20 = load i32, ptr %3, align 4
  ret i32 %20
}

; Function Attrs: inlinehint nounwind uwtable
define internal void @strbuf_addstr(ptr noundef %0, ptr noundef %1) #3 {
  %3 = alloca ptr, align 8
  %4 = alloca ptr, align 8
  store ptr %0, ptr %3, align 8, !tbaa !92
  store ptr %1, ptr %4, align 8, !tbaa !11
  %5 = load ptr, ptr %3, align 8, !tbaa !92
  %6 = load ptr, ptr %4, align 8, !tbaa !11
  %7 = load ptr, ptr %4, align 8, !tbaa !11
  %8 = call i64 @strlen(ptr noundef %7) #13
  call void @strbuf_add(ptr noundef %5, ptr noundef %6, i64 noundef %8)
  ret void
}

; Function Attrs: nounwind uwtable
define internal i32 @can_use_local_refs(ptr noundef %0) #0 {
  %2 = alloca i32, align 4
  %3 = alloca ptr, align 8
  %4 = alloca %struct.strbuf, align 8
  %5 = alloca %struct.strbuf, align 8
  store ptr %0, ptr %3, align 8, !tbaa !79
  %6 = load ptr, ptr @the_repository, align 8, !tbaa !13
  %7 = call ptr @get_main_ref_store(ptr noundef %6)
  %8 = call i32 @refs_head_ref(ptr noundef %7, ptr noundef @first_valid_ref, ptr noundef null)
  %9 = icmp ne i32 %8, 0
  br i1 %9, label %10, label %11

10:                                               ; preds = %1
  store i32 1, ptr %2, align 4
  br label %35

11:                                               ; preds = %1
  %12 = load ptr, ptr @the_repository, align 8, !tbaa !13
  %13 = call ptr @get_main_ref_store(ptr noundef %12)
  %14 = call i32 @refs_for_each_branch_ref(ptr noundef %13, ptr noundef @first_valid_ref, ptr noundef null)
  %15 = icmp ne i32 %14, 0
  br i1 %15, label %16, label %33

16:                                               ; preds = %11
  %17 = load ptr, ptr %3, align 8, !tbaa !79
  %18 = getelementptr inbounds nuw %struct.add_opts, ptr %17, i32 0, i32 2
  %19 = load i32, ptr %18, align 8, !tbaa !59
  %20 = icmp ne i32 %19, 0
  br i1 %20, label %32, label %21

21:                                               ; preds = %16
  call void @llvm.lifetime.start.p0(i64 24, ptr %4) #11
  call void @llvm.memcpy.p0.p0.i64(ptr align 8 %4, ptr align 8 @__const.can_use_local_refs.path, i64 24, i1 false)
  call void @llvm.lifetime.start.p0(i64 24, ptr %5) #11
  call void @llvm.memcpy.p0.p0.i64(ptr align 8 %5, ptr align 8 @__const.can_use_local_refs.contents, i64 24, i1 false)
  %22 = call ptr @get_worktree_git_dir(ptr noundef null)
  call void @strbuf_add_real_path(ptr noundef %4, ptr noundef %22)
  call void @strbuf_addstr(ptr noundef %4, ptr noundef @.str.55)
  %23 = getelementptr inbounds nuw %struct.strbuf, ptr %4, i32 0, i32 2
  %24 = load ptr, ptr %23, align 8, !tbaa !55
  %25 = call i64 @strbuf_read_file(ptr noundef %5, ptr noundef %24, i64 noundef 64)
  call void @strbuf_stripspace(ptr noundef %5, ptr noundef null)
  %26 = call i32 @strbuf_strip_suffix(ptr noundef %5, ptr noundef @.str.56)
  %27 = call ptr @_(ptr noundef @.str.57)
  %28 = getelementptr inbounds nuw %struct.strbuf, ptr %4, i32 0, i32 2
  %29 = load ptr, ptr %28, align 8, !tbaa !55
  %30 = getelementptr inbounds nuw %struct.strbuf, ptr %5, i32 0, i32 2
  %31 = load ptr, ptr %30, align 8, !tbaa !55
  call void (ptr, ...) @warning(ptr noundef %27, ptr noundef %29, ptr noundef %31)
  call void @strbuf_release(ptr noundef %4)
  call void @strbuf_release(ptr noundef %5)
  call void @llvm.lifetime.end.p0(i64 24, ptr %5) #11
  call void @llvm.lifetime.end.p0(i64 24, ptr %4) #11
  br label %32

32:                                               ; preds = %21, %16
  store i32 1, ptr %2, align 4
  br label %35

33:                                               ; preds = %11
  br label %34

34:                                               ; preds = %33
  store i32 0, ptr %2, align 4
  br label %35

35:                                               ; preds = %34, %32, %10
  %36 = load i32, ptr %2, align 4
  ret i32 %36
}