; Function Attrs: nounwind uwtable
define internal fastcc range(i32 0, 2) i32 @can_use_local_refs(ptr noundef nonnull readonly captures(none) %0) unnamed_addr #0 {
  %2 = alloca %struct.strbuf, align 8
  %3 = alloca %struct.strbuf, align 8
  %4 = load ptr, ptr @the_repository, align 8, !tbaa !17
  %5 = tail call ptr @get_main_ref_store(ptr noundef %4) #18
  %6 = tail call i32 @refs_head_ref(ptr noundef %5, ptr noundef nonnull @first_valid_ref, ptr noundef null) #18
  %.not = icmp eq i32 %6, 0
  br i1 %.not, label %7, label %38

7:                                                ; preds = %1
  %8 = load ptr, ptr @the_repository, align 8, !tbaa !17
  %9 = tail call ptr @get_main_ref_store(ptr noundef %8) #18
  %10 = tail call i32 @refs_for_each_branch_ref(ptr noundef %9, ptr noundef nonnull @first_valid_ref, ptr noundef null) #18
  %.not1 = icmp eq i32 %10, 0
  br i1 %.not1, label %38, label %11

11:                                               ; preds = %7
  %12 = getelementptr inbounds nuw i8, ptr %0, i64 8
  %13 = load i32, ptr %12, align 8, !tbaa !57
  %.not2 = icmp eq i32 %13, 0
  br i1 %.not2, label %14, label %38

14:                                               ; preds = %11
  call void @llvm.lifetime.start.p0(i64 24, ptr nonnull %2) #18
  call void @llvm.memcpy.p0.p0.i64(ptr noundef nonnull align 8 dereferenceable(24) %2, ptr noundef nonnull align 8 dereferenceable(24) @__const.delete_git_work_tree.sb, i64 24, i1 false)
  call void @llvm.lifetime.start.p0(i64 24, ptr nonnull %3) #18
  call void @llvm.memcpy.p0.p0.i64(ptr noundef nonnull align 8 dereferenceable(24) %3, ptr noundef nonnull align 8 dereferenceable(24) @__const.delete_git_work_tree.sb, i64 24, i1 false)
  %15 = tail call ptr @get_worktree_git_dir(ptr noundef null) #18
  call void @strbuf_add_real_path(ptr noundef nonnull %2, ptr noundef %15) #18
  call void @strbuf_add(ptr noundef nonnull %2, ptr noundef nonnull @.str.55, i64 noundef 5) #18
  %16 = getelementptr inbounds nuw i8, ptr %2, i64 16
  %17 = load ptr, ptr %16, align 8, !tbaa !50
  %18 = call i64 @strbuf_read_file(ptr noundef nonnull %3, ptr noundef %17, i64 noundef 64) #18
  call void @strbuf_stripspace(ptr noundef nonnull %3, ptr noundef null) #18
  %19 = getelementptr inbounds nuw i8, ptr %3, i64 16
  %20 = load ptr, ptr %19, align 8, !tbaa !50
  %21 = getelementptr inbounds nuw i8, ptr %3, i64 8
  %22 = load i64, ptr %21, align 8, !tbaa !70
  %23 = icmp eq i64 %22, 0
  br i1 %23, label %strbuf_strip_suffix.exit, label %24

24:                                               ; preds = %14
  %25 = add i64 %22, -1
  %26 = getelementptr inbounds nuw i8, ptr %20, i64 %25
  %lhsc = load i8, ptr %26, align 1
  %.not.i.i = icmp eq i8 %lhsc, 10
  br i1 %.not.i.i, label %27, label %strbuf_strip_suffix.exit

27:                                               ; preds = %24
  store i64 %25, ptr %21, align 8, !tbaa !70
  %28 = load i64, ptr %3, align 8, !tbaa !61
  %spec.select.i.i = call i64 @llvm.usub.sat.i64(i64 %28, i64 1)
  %29 = icmp ugt i64 %25, %spec.select.i.i
  br i1 %29, label %30, label %31

30:                                               ; preds = %27
  call void (ptr, i32, ptr, ...) @BUG_fl(ptr noundef nonnull @.str.58, i32 noundef 167, ptr noundef nonnull @.str.59) #19
  unreachable

31:                                               ; preds = %27
  %.not9.i.i = icmp eq ptr %20, @strbuf_slopbuf
  br i1 %.not9.i.i, label %strbuf_strip_suffix.exit, label %32

32:                                               ; preds = %31
  store i8 0, ptr %26, align 1, !tbaa !53
  br label %strbuf_strip_suffix.exit

strbuf_strip_suffix.exit:                         ; preds = %14, %24, %31, %32
  %33 = load i32, ptr @git_gettext_enabled, align 4, !tbaa !38
  %.not4.i = icmp eq i32 %33, 0
  br i1 %.not4.i, label %_.exit, label %34

34:                                               ; preds = %strbuf_strip_suffix.exit
  %35 = call ptr @dcgettext(ptr noundef null, ptr noundef nonnull @.str.57, i32 noundef 5) #18
  br label %_.exit

_.exit:                                           ; preds = %strbuf_strip_suffix.exit, %34
  %.0.i3 = phi ptr [ %35, %34 ], [ @.str.57, %strbuf_strip_suffix.exit ]
  %36 = load ptr, ptr %16, align 8, !tbaa !50
  %37 = load ptr, ptr %19, align 8, !tbaa !50
  call void (ptr, ...) @warning(ptr noundef %.0.i3, ptr noundef %36, ptr noundef %37) #18
  call void @strbuf_release(ptr noundef nonnull %2) #18
  call void @strbuf_release(ptr noundef nonnull %3) #18
  call void @llvm.lifetime.end.p0(i64 24, ptr nonnull %3) #18
  call void @llvm.lifetime.end.p0(i64 24, ptr nonnull %2) #18
  br label %38

38:                                               ; preds = %7, %11, %_.exit, %1
  %.0 = phi i32 [ 1, %1 ], [ 1, %_.exit ], [ 1, %11 ], [ 0, %7 ]
  ret i32 %.0
}